target datalayout = "e-m:e-p270:32:32-p271:32:32-p272:64:64-i64:64-i128:128-f80:128-n8:16:32:64-S128"
target triple = "x86_64-pc-linux-gnu"

@.str = private unnamed_addr constant [35 x i8] c"../openssl/test/cipherbytes_test.c\00", align 1
@s = internal global ptr null, align 8
@.str.8 = private unnamed_addr constant [2 x i8] c"0\00", align 1
@.str.9 = private unnamed_addr constant [3 x i8] c"sk\00", align 1
@.str.10 = private unnamed_addr constant [5 x i8] c"scsv\00", align 1
@.str.12 = private unnamed_addr constant [22 x i8] c"sk_SSL_CIPHER_num(sk)\00", align 1
@.str.14 = private unnamed_addr constant [24 x i8] c"sk_SSL_CIPHER_num(scsv)\00", align 1
@__const.test_v2.bytes = private unnamed_addr constant [9 x i8] c"\00\005\01\00\80\00\003", align 1
@.str.18 = private unnamed_addr constant [65 x i8] c"SSL_bytes_to_cipher_list(s, bytes, sizeof(bytes), 1, &sk, &scsv)\00", align 1
@.str.19 = private unnamed_addr constant [2 x i8] c"2\00", align 1
@.str.20 = private unnamed_addr constant [11 x i8] c"AES256-SHA\00", align 1
@.str.21 = private unnamed_addr constant [19 x i8] c"DHE-RSA-AES128-SHA\00", align 1

; Function Attrs: inlinehint nounwind uwtable
define internal ptr @ossl_check_SSL_CIPHER_sk_type(ptr noundef %0) #4 {
  %2 = alloca ptr, align 8
  store ptr %0, ptr %2, align 8, !tbaa !11
  %3 = load ptr, ptr %2, align 8, !tbaa !11
  ret ptr %3
}

; Function Attrs: inlinehint nounwind uwtable
define internal ptr @ossl_check_const_SSL_CIPHER_sk_type(ptr noundef %0) #4 {
  %2 = alloca ptr, align 8
  store ptr %0, ptr %2, align 8, !tbaa !11
  %3 = load ptr, ptr %2, align 8, !tbaa !11
  ret ptr %3
}

; Function Attrs: nounwind uwtable
define internal i32 @test_v2() #0 {
  %1 = alloca ptr, align 8
  %2 = alloca ptr, align 8
  %3 = alloca [9 x i8], align 1
  %4 = alloca i32, align 4
  call void @llvm.lifetime.start.p0(i64 8, ptr %1) #7
  call void @llvm.lifetime.start.p0(i64 8, ptr %2) #7
  call void @llvm.lifetime.start.p0(i64 9, ptr %3) #7
  call void @llvm.memcpy.p0.p0.i64(ptr align 1 %3, ptr align 1 @__const.test_v2.bytes, i64 9, i1 false)
  call void @llvm.lifetime.start.p0(i64 4, ptr %4) #7
  store i32 0, ptr %4, align 4, !tbaa !13
  %5 = load ptr, ptr @s, align 8, !tbaa !9
  %6 = getelementptr inbounds [9 x i8], ptr %3, i64 0, i64 0
  %7 = call i32 @SSL_bytes_to_cipher_list(ptr noundef %5, ptr noundef %6, i64 noundef 9, i32 noundef 1, ptr noundef %1, ptr noundef %2)
  %8 = icmp ne i32 %7, 0
  %9 = zext i1 %8 to i32
  %10 = call i32 @test_true(ptr noundef @.str, i32 noundef 79, ptr noundef @.str.18, i32 noundef %9)
  %11 = icmp ne i32 %10, 0
  br i1 %11, label %12, label %32

12:                                               ; preds = %0
  %13 = load ptr, ptr %1, align 8, !tbaa !11
  %14 = call i32 @test_ptr(ptr noundef @.str, i32 noundef 80, ptr noundef @.str.9, ptr noundef %13)
  %15 = icmp ne i32 %14, 0
  br i1 %15, label %16, label %32

16:                                               ; preds = %12
  %17 = load ptr, ptr %1, align 8, !tbaa !11
  %18 = call ptr @ossl_check_const_SSL_CIPHER_sk_type(ptr noundef %17)
  %19 = call i32 @OPENSSL_sk_num(ptr noundef %18)
  %20 = call i32 @test_int_eq(ptr noundef @.str, i32 noundef 81, ptr noundef @.str.12, ptr noundef @.str.19, i32 noundef %19, i32 noundef 2)
  %21 = icmp ne i32 %20, 0
  br i1 %21, label %22, label %32

22:                                               ; preds = %16
  %23 = load ptr, ptr %2, align 8, !tbaa !11
  %24 = call i32 @test_ptr(ptr noundef @.str, i32 noundef 82, ptr noundef @.str.10, ptr noundef %23)
  %25 = icmp ne i32 %24, 0
  br i1 %25, label %26, label %32

26:                                               ; preds = %22
  %27 = load ptr, ptr %2, align 8, !tbaa !11
  %28 = call ptr @ossl_check_const_SSL_CIPHER_sk_type(ptr noundef %27)
  %29 = call i32 @OPENSSL_sk_num(ptr noundef %28)
  %30 = call i32 @test_int_eq(ptr noundef @.str, i32 noundef 83, ptr noundef @.str.14, ptr noundef @.str.8, i32 noundef %29, i32 noundef 0)
  %31 = icmp ne i32 %30, 0
  br i1 %31, label %33, label %32

32:                                               ; preds = %26, %22, %16, %12, %0
  br label %49

33:                                               ; preds = %26
  %34 = load ptr, ptr %1, align 8, !tbaa !11
  %35 = call ptr @ossl_check_const_SSL_CIPHER_sk_type(ptr noundef %34)
  %36 = call ptr @OPENSSL_sk_value(ptr noundef %35, i32 noundef 0)
  %37 = call ptr @SSL_CIPHER_get_name(ptr noundef %36)
  %38 = call i32 @strcmp(ptr noundef %37, ptr noundef @.str.20) #8
  %39 = icmp ne i32 %38, 0
  br i1 %39, label %47, label %40

40:                                               ; preds = %33
  %41 = load ptr, ptr %1, align 8, !tbaa !11
  %42 = call ptr @ossl_check_const_SSL_CIPHER_sk_type(ptr noundef %41)
  %43 = call ptr @OPENSSL_sk_value(ptr noundef %42, i32 noundef 1)
  %44 = call ptr @SSL_CIPHER_get_name(ptr noundef %43)
  %45 = call i32 @strcmp(ptr noundef %44, ptr noundef @.str.21) #8
  %46 = icmp ne i32 %45, 0
  br i1 %46, label %47, label %48

47:                                               ; preds = %40, %33
  br label %49

48:                                               ; preds = %40
  store i32 1, ptr %4, align 4, !tbaa !13
  br label %49

49:                                               ; preds = %48, %47, %32
  %50 = load ptr, ptr %1, align 8, !tbaa !11
  %51 = call ptr @ossl_check_SSL_CIPHER_sk_type(ptr noundef %50)
  call void @OPENSSL_sk_free(ptr noundef %51)
  %52 = load ptr, ptr %2, align 8, !tbaa !11
  %53 = call ptr @ossl_check_SSL_CIPHER_sk_type(ptr noundef %52)
  call void @OPENSSL_sk_free(ptr noundef %53)
  %54 = load i32, ptr %4, align 4, !tbaa !13
  call void @llvm.lifetime.end.p0(i64 4, ptr %4) #7
  call void @llvm.lifetime.end.p0(i64 9, ptr %3) #7
  call void @llvm.lifetime.end.p0(i64 8, ptr %2) #7
  call void @llvm.lifetime.end.p0(i64 8, ptr %1) #7
  ret i32 %54
}