; Function Attrs: nounwind uwtable
define internal range(i32 0, 2) i32 @test_v2() #0 {
  %1 = alloca ptr, align 8
  %2 = alloca ptr, align 8
  %3 = alloca [9 x i8], align 1
  call void @llvm.lifetime.start.p0(i64 8, ptr nonnull %1) #5
  call void @llvm.lifetime.start.p0(i64 8, ptr nonnull %2) #5
  call void @llvm.lifetime.start.p0(i64 9, ptr nonnull %3) #5
  call void @llvm.memcpy.p0.p0.i64(ptr noundef nonnull align 1 dereferenceable(9) %3, ptr noundef nonnull align 1 dereferenceable(9) @__const.test_v2.bytes, i64 9, i1 false)
  %4 = load ptr, ptr @s, align 8, !tbaa !9
  %5 = call i32 @SSL_bytes_to_cipher_list(ptr noundef %4, ptr noundef nonnull %3, i64 noundef 9, i32 noundef 1, ptr noundef nonnull %1, ptr noundef nonnull %2) #5
  %6 = icmp ne i32 %5, 0
  %7 = zext i1 %6 to i32
  %8 = call i32 @test_true(ptr noundef nonnull @.str, i32 noundef 79, ptr noundef nonnull @.str.18, i32 noundef %7) #5
  %.not = icmp eq i32 %8, 0
  br i1 %.not, label %33, label %9

9:                                                ; preds = %0
  %10 = load ptr, ptr %1, align 8, !tbaa !11
  %11 = call i32 @test_ptr(ptr noundef nonnull @.str, i32 noundef 80, ptr noundef nonnull @.str.9, ptr noundef %10) #5
  %.not1 = icmp eq i32 %11, 0
  br i1 %.not1, label %33, label %12

12:                                               ; preds = %9
  %13 = load ptr, ptr %1, align 8, !tbaa !11
  %14 = call i32 @OPENSSL_sk_num(ptr noundef %13) #5
  %15 = call i32 @test_int_eq(ptr noundef nonnull @.str, i32 noundef 81, ptr noundef nonnull @.str.12, ptr noundef nonnull @.str.19, i32 noundef %14, i32 noundef 2) #5
  %.not2 = icmp eq i32 %15, 0
  br i1 %.not2, label %33, label %16

16:                                               ; preds = %12
  %17 = load ptr, ptr %2, align 8, !tbaa !11
  %18 = call i32 @test_ptr(ptr noundef nonnull @.str, i32 noundef 82, ptr noundef nonnull @.str.10, ptr noundef %17) #5
  %.not3 = icmp eq i32 %18, 0
  br i1 %.not3, label %33, label %19

19:                                               ; preds = %16
  %20 = load ptr, ptr %2, align 8, !tbaa !11
  %21 = call i32 @OPENSSL_sk_num(ptr noundef %20) #5
  %22 = call i32 @test_int_eq(ptr noundef nonnull @.str, i32 noundef 83, ptr noundef nonnull @.str.14, ptr noundef nonnull @.str.8, i32 noundef %21, i32 noundef 0) #5
  %.not4 = icmp eq i32 %22, 0
  br i1 %.not4, label %33, label %23

23:                                               ; preds = %19
  %24 = load ptr, ptr %1, align 8, !tbaa !11
  %25 = call ptr @OPENSSL_sk_value(ptr noundef %24, i32 noundef 0) #5
  %26 = call ptr @SSL_CIPHER_get_name(ptr noundef %25) #5
  %27 = call i32 @strcmp(ptr noundef nonnull dereferenceable(1) %26, ptr noundef nonnull dereferenceable(11) @.str.20) #6
  %.not5 = icmp eq i32 %27, 0
  br i1 %.not5, label %28, label %33

28:                                               ; preds = %23
  %29 = load ptr, ptr %1, align 8, !tbaa !11
  %30 = call ptr @OPENSSL_sk_value(ptr noundef %29, i32 noundef 1) #5
  %31 = call ptr @SSL_CIPHER_get_name(ptr noundef %30) #5
  %32 = call i32 @strcmp(ptr noundef nonnull dereferenceable(1) %31, ptr noundef nonnull dereferenceable(19) @.str.21) #6
  %.not6 = icmp eq i32 %32, 0
  %spec.select = zext i1 %.not6 to i32
  br label %33

33:                                               ; preds = %28, %23, %0, %9, %12, %16, %19
  %.0 = phi i32 [ 0, %23 ], [ 0, %19 ], [ 0, %16 ], [ 0, %12 ], [ 0, %9 ], [ 0, %0 ], [ %spec.select, %28 ]
  %34 = load ptr, ptr %1, align 8, !tbaa !11
  call void @OPENSSL_sk_free(ptr noundef %34) #5
  %35 = load ptr, ptr %2, align 8, !tbaa !11
  call void @OPENSSL_sk_free(ptr noundef %35) #5
  call void @llvm.lifetime.end.p0(i64 9, ptr nonnull %3) #5
  call void @llvm.lifetime.end.p0(i64 8, ptr nonnull %2) #5
  call void @llvm.lifetime.end.p0(i64 8, ptr nonnull %1) #5
  ret i32 %.0
}